; Function Attrs: mustprogress uwtable
define hidden noundef zeroext i1 @_ZN8FileTest16ExpectBytesEqualEPKhmS1_m(ptr noundef nonnull readonly align 8 captures(none) dereferenceable(176) %0, ptr noundef readonly captures(none) %1, i64 noundef %2, ptr noundef readonly captures(none) %3, i64 noundef %4) local_unnamed_addr #6 align 2 personality ptr @__gxx_personality_v0 {
  %6 = alloca %"class.std::__cxx11::basic_string", align 8
  %7 = alloca %"class.std::__cxx11::basic_string", align 8
  %8 = icmp eq i64 %2, %4
  br i1 %8, label %9, label %11

9:                                                ; preds = %5
  %bcmp = tail call i32 @bcmp(ptr %1, ptr %3, i64 %2)
  %10 = icmp eq i32 %bcmp, 0
  br i1 %10, label %35, label %11

11:                                               ; preds = %9, %5
  call void @llvm.lifetime.start.p0(i64 32, ptr nonnull %6) #25
  call fastcc void @_ZL9EncodeHexB5cxx11PKhm(ptr dead_on_unwind noalias writable align 8 %6, ptr noundef %1, i64 noundef %2)
  call void @llvm.lifetime.start.p0(i64 32, ptr nonnull %7) #25
  invoke fastcc void @_ZL9EncodeHexB5cxx11PKhm(ptr dead_on_unwind noalias writable align 8 %7, ptr noundef %3, i64 noundef %4)
          to label %12 unwind label %27

12:                                               ; preds = %11
  %13 = load ptr, ptr %6, align 8, !tbaa !39
  call void (ptr, ptr, ...) @_ZN8FileTest9PrintLineEPKcz(ptr noundef nonnull align 8 dereferenceable(176) %0, ptr noundef nonnull @.str.10, ptr noundef %13)
  %14 = load ptr, ptr %7, align 8, !tbaa !39
  call void (ptr, ptr, ...) @_ZN8FileTest9PrintLineEPKcz(ptr noundef nonnull align 8 dereferenceable(176) %0, ptr noundef nonnull @.str.11, ptr noundef %14)
  %15 = load ptr, ptr %7, align 8, !tbaa !39
  %16 = getelementptr inbounds nuw i8, ptr %7, i64 16
  %17 = icmp eq ptr %15, %16
  br i1 %17, label %_ZNKSt7__cxx1112basic_stringIcSt11char_traitsIcESaIcEE11_M_is_localEv.exit.thread.i.i, label %_ZNKSt7__cxx1112basic_stringIcSt11char_traitsIcESaIcEE11_M_is_localEv.exit.i.i

_ZNKSt7__cxx1112basic_stringIcSt11char_traitsIcESaIcEE11_M_is_localEv.exit.thread.i.i: ; preds = %12
  %18 = getelementptr inbounds nuw i8, ptr %7, i64 8
  %19 = load i64, ptr %18, align 8, !tbaa !12
  %20 = icmp ult i64 %19, 16
  call void @llvm.assume(i1 %20)
  br label %_ZNSt7__cxx1112basic_stringIcSt11char_traitsIcESaIcEED2Ev.exit

_ZNKSt7__cxx1112basic_stringIcSt11char_traitsIcESaIcEE11_M_is_localEv.exit.i.i: ; preds = %12
  call void @_ZdlPv(ptr noundef %15) #28
  br label %_ZNSt7__cxx1112basic_stringIcSt11char_traitsIcESaIcEED2Ev.exit

_ZNSt7__cxx1112basic_stringIcSt11char_traitsIcESaIcEED2Ev.exit: ; preds = %_ZNKSt7__cxx1112basic_stringIcSt11char_traitsIcESaIcEE11_M_is_localEv.exit.thread.i.i, %_ZNKSt7__cxx1112basic_stringIcSt11char_traitsIcESaIcEE11_M_is_localEv.exit.i.i
  call void @llvm.lifetime.end.p0(i64 32, ptr nonnull %7) #25
  %21 = load ptr, ptr %6, align 8, !tbaa !39
  %22 = getelementptr inbounds nuw i8, ptr %6, i64 16
  %23 = icmp eq ptr %21, %22
  br i1 %23, label %_ZNKSt7__cxx1112basic_stringIcSt11char_traitsIcESaIcEE11_M_is_localEv.exit.thread.i.i14, label %_ZNKSt7__cxx1112basic_stringIcSt11char_traitsIcESaIcEE11_M_is_localEv.exit.i.i13

_ZNKSt7__cxx1112basic_stringIcSt11char_traitsIcESaIcEE11_M_is_localEv.exit.thread.i.i14: ; preds = %_ZNSt7__cxx1112basic_stringIcSt11char_traitsIcESaIcEED2Ev.exit
  %24 = getelementptr inbounds nuw i8, ptr %6, i64 8
  %25 = load i64, ptr %24, align 8, !tbaa !12
  %26 = icmp ult i64 %25, 16
  call void @llvm.assume(i1 %26)
  br label %_ZNSt7__cxx1112basic_stringIcSt11char_traitsIcESaIcEED2Ev.exit15

_ZNKSt7__cxx1112basic_stringIcSt11char_traitsIcESaIcEE11_M_is_localEv.exit.i.i13: ; preds = %_ZNSt7__cxx1112basic_stringIcSt11char_traitsIcESaIcEED2Ev.exit
  call void @_ZdlPv(ptr noundef %21) #28
  br label %_ZNSt7__cxx1112basic_stringIcSt11char_traitsIcESaIcEED2Ev.exit15

_ZNSt7__cxx1112basic_stringIcSt11char_traitsIcESaIcEED2Ev.exit15: ; preds = %_ZNKSt7__cxx1112basic_stringIcSt11char_traitsIcESaIcEE11_M_is_localEv.exit.thread.i.i14, %_ZNKSt7__cxx1112basic_stringIcSt11char_traitsIcESaIcEE11_M_is_localEv.exit.i.i13
  call void @llvm.lifetime.end.p0(i64 32, ptr nonnull %6) #25
  br label %35

27:                                               ; preds = %11
  %28 = landingpad { ptr, i32 }
          cleanup
  call void @llvm.lifetime.end.p0(i64 32, ptr nonnull %7) #25
  %29 = load ptr, ptr %6, align 8, !tbaa !39
  %30 = getelementptr inbounds nuw i8, ptr %6, i64 16
  %31 = icmp eq ptr %29, %30
  br i1 %31, label %_ZNKSt7__cxx1112basic_stringIcSt11char_traitsIcESaIcEE11_M_is_localEv.exit.thread.i.i17, label %_ZNKSt7__cxx1112basic_stringIcSt11char_traitsIcESaIcEE11_M_is_localEv.exit.i.i16

_ZNKSt7__cxx1112basic_stringIcSt11char_traitsIcESaIcEE11_M_is_localEv.exit.thread.i.i17: ; preds = %27
  %32 = getelementptr inbounds nuw i8, ptr %6, i64 8
  %33 = load i64, ptr %32, align 8, !tbaa !12
  %34 = icmp ult i64 %33, 16
  call void @llvm.assume(i1 %34)
  br label %_ZNSt7__cxx1112basic_stringIcSt11char_traitsIcESaIcEED2Ev.exit18

_ZNKSt7__cxx1112basic_stringIcSt11char_traitsIcESaIcEE11_M_is_localEv.exit.i.i16: ; preds = %27
  call void @_ZdlPv(ptr noundef %29) #28
  br label %_ZNSt7__cxx1112basic_stringIcSt11char_traitsIcESaIcEED2Ev.exit18

_ZNSt7__cxx1112basic_stringIcSt11char_traitsIcESaIcEED2Ev.exit18: ; preds = %_ZNKSt7__cxx1112basic_stringIcSt11char_traitsIcESaIcEE11_M_is_localEv.exit.thread.i.i17, %_ZNKSt7__cxx1112basic_stringIcSt11char_traitsIcESaIcEE11_M_is_localEv.exit.i.i16
  call void @llvm.lifetime.end.p0(i64 32, ptr nonnull %6) #25
  resume { ptr, i32 } %28

35:                                               ; preds = %9, %_ZNSt7__cxx1112basic_stringIcSt11char_traitsIcESaIcEED2Ev.exit15
  %.0 = phi i1 [ false, %_ZNSt7__cxx1112basic_stringIcSt11char_traitsIcESaIcEED2Ev.exit15 ], [ true, %9 ]
  ret i1 %.0
}